; ModuleID = 'source-C-CXX/41/1856.cpp'
source_filename = "source-C-CXX/41/1856.cpp"
target datalayout = "e-m:e-p270:32:32-p271:32:32-p272:64:64-i64:64-f80:128-n8:16:32:64-S128"
target triple = "x86_64-pc-linux-gnu"

%"class.std::ios_base::Init" = type { i8 }
%"class.std::basic_istream" = type { i32 (...)**, i64, %"class.std::basic_ios" }
%"class.std::basic_ios" = type { %"class.std::ios_base", %"class.std::basic_ostream"*, i8, i8, %"class.std::basic_streambuf"*, %"class.std::ctype"*, %"class.std::num_put"*, %"class.std::num_get"* }
%"class.std::ios_base" = type { i32 (...)**, i64, i64, i32, i32, i32, %"struct.std::ios_base::_Callback_list"*, %"struct.std::ios_base::_Words", [8 x %"struct.std::ios_base::_Words"], i32, %"struct.std::ios_base::_Words"*, %"class.std::locale" }
%"struct.std::ios_base::_Callback_list" = type { %"struct.std::ios_base::_Callback_list"*, void (i32, %"class.std::ios_base"*, i32)*, i32, i32 }
%"struct.std::ios_base::_Words" = type { i8*, i64 }
%"class.std::locale" = type { %"class.std::locale::_Impl"* }
%"class.std::locale::_Impl" = type { i32, %"class.std::locale::facet"**, i64, %"class.std::locale::facet"**, i8** }
%"class.std::locale::facet" = type <{ i32 (...)**, i32, [4 x i8] }>
%"class.std::basic_ostream" = type { i32 (...)**, %"class.std::basic_ios" }
%"class.std::basic_streambuf" = type { i32 (...)**, i8*, i8*, i8*, i8*, i8*, i8*, %"class.std::locale" }
%"class.std::ctype" = type <{ %"class.std::locale::facet.base", [4 x i8], %struct.__locale_struct*, i8, [7 x i8], i32*, i32*, i16*, i8, [256 x i8], [256 x i8], i8, [6 x i8] }>
%"class.std::locale::facet.base" = type <{ i32 (...)**, i32 }>
%struct.__locale_struct = type { [13 x %struct.__locale_data*], i16*, i32*, i32*, [13 x i8*] }
%struct.__locale_data = type opaque
%"class.std::num_put" = type { %"class.std::locale::facet.base", [4 x i8] }
%"class.std::num_get" = type { %"class.std::locale::facet.base", [4 x i8] }

@_ZStL8__ioinit = internal global %"class.std::ios_base::Init" zeroinitializer, align 1
@__dso_handle = external hidden global i8
@_ZSt3cin = external global %"class.std::basic_istream", align 8
@_ZSt4cout = external global %"class.std::basic_ostream", align 8
@.str = private unnamed_addr constant [2 x i8] c" \00", align 1
@llvm.global_ctors = appending global [1 x { i32, void ()*, i8* }] [{ i32, void ()*, i8* } { i32 65535, void ()* @_GLOBAL__sub_I_1856.cpp, i8* null }]

declare void @_ZNSt8ios_base4InitC1Ev(%"class.std::ios_base::Init"* nonnull align 1 dereferenceable(1)) unnamed_addr #0

; Function Attrs: nounwind
declare void @_ZNSt8ios_base4InitD1Ev(%"class.std::ios_base::Init"* nonnull align 1 dereferenceable(1)) unnamed_addr #1

; Function Attrs: nofree nounwind
declare i32 @__cxa_atexit(void (i8*)*, i8*, i8*) local_unnamed_addr #2

; Function Attrs: mustprogress norecurse sspstrong uwtable
define dso_local i32 @main() local_unnamed_addr #3 {
  %1 = alloca i32, align 4
  %2 = alloca i32, align 4
  %3 = alloca [1000001 x i32], align 16
  %4 = bitcast i32* %1 to i8*
  call void @llvm.lifetime.start.p0i8(i64 4, i8* nonnull %4) #7
  %5 = bitcast i32* %2 to i8*
  call void @llvm.lifetime.start.p0i8(i64 4, i8* nonnull %5) #7
  %6 = call nonnull align 8 dereferenceable(16) %"class.std::basic_istream"* @_ZNSirsERi(%"class.std::basic_istream"* nonnull align 8 dereferenceable(16) @_ZSt3cin, i32* nonnull align 4 dereferenceable(4) %1)
  %7 = bitcast [1000001 x i32]* %3 to i8*
  call void @llvm.lifetime.start.p0i8(i64 4000004, i8* nonnull %7) #7
  call void @llvm.memset.p0i8.i64(i8* noundef nonnull align 16 dereferenceable(4000004) %7, i8 0, i64 4000004, i1 false)
  %8 = load i32, i32* %1, align 4, !tbaa !5
  %9 = icmp sgt i32 %8, 0
  br i1 %9, label %10, label %18

10:                                               ; preds = %0, %10
  %11 = phi i64 [ %14, %10 ], [ 0, %0 ]
  %12 = getelementptr inbounds [1000001 x i32], [1000001 x i32]* %3, i64 0, i64 %11
  %13 = call nonnull align 8 dereferenceable(16) %"class.std::basic_istream"* @_ZNSirsERi(%"class.std::basic_istream"* nonnull align 8 dereferenceable(16) @_ZSt3cin, i32* nonnull align 4 dereferenceable(4) %12)
  %14 = add nuw nsw i64 %11, 1
  %15 = load i32, i32* %1, align 4, !tbaa !5
  %16 = sext i32 %15 to i64
  %17 = icmp slt i64 %14, %16
  br i1 %17, label %10, label %18, !llvm.loop !9

18:                                               ; preds = %10, %0
  %19 = call nonnull align 8 dereferenceable(16) %"class.std::basic_istream"* @_ZNSirsERi(%"class.std::basic_istream"* nonnull align 8 dereferenceable(16) @_ZSt3cin, i32* nonnull align 4 dereferenceable(4) %2)
  %20 = load i32, i32* %1, align 4, !tbaa !5
  %21 = load i32, i32* %2, align 4
  %22 = icmp sgt i32 %20, 0
  br i1 %22, label %23, label %143

23:                                               ; preds = %18
  %24 = zext i32 %20 to i64
  %25 = zext i32 %20 to i64
  br label %26

26:                                               ; preds = %23, %128
  %27 = phi i64 [ 0, %23 ], [ %38, %128 ]
  %28 = phi i64 [ 1, %23 ], [ %130, %128 ]
  %29 = phi i32 [ 0, %23 ], [ %129, %128 ]
  %30 = xor i64 %27, -1
  %31 = add nsw i64 %30, %25
  %32 = add i64 %31, -8
  %33 = lshr i64 %32, 3
  %34 = add nuw nsw i64 %33, 1
  %35 = xor i64 %27, -1
  %36 = add nsw i64 %35, %25
  %37 = getelementptr inbounds [1000001 x i32], [1000001 x i32]* %3, i64 0, i64 %27
  %38 = add nuw nsw i64 %27, 1
  %39 = getelementptr inbounds [1000001 x i32], [1000001 x i32]* %3, i64 0, i64 %38
  %40 = icmp ult i64 %38, %24
  %41 = load i32, i32* %37, align 4, !tbaa !5
  %42 = icmp eq i32 %41, %21
  br i1 %42, label %43, label %128, !llvm.loop !11

43:                                               ; preds = %26
  %44 = icmp ult i64 %36, 8
  %45 = and i64 %36, -8
  %46 = add i64 %28, %45
  %47 = and i64 %34, 1
  %48 = icmp ult i64 %32, 8
  %49 = and i64 %34, 4611686018427387902
  %50 = icmp eq i64 %47, 0
  %51 = icmp eq i64 %36, %45
  br label %61

52:                                               ; preds = %128
  %53 = icmp sgt i32 %20, %129
  br i1 %53, label %54, label %143

54:                                               ; preds = %52
  %55 = getelementptr inbounds [1000001 x i32], [1000001 x i32]* %3, i64 0, i64 0
  %56 = load i32, i32* %55, align 16, !tbaa !5
  %57 = call nonnull align 8 dereferenceable(8) %"class.std::basic_ostream"* @_ZNSolsEi(%"class.std::basic_ostream"* nonnull align 8 dereferenceable(8) @_ZSt4cout, i32 %56)
  %58 = load i32, i32* %1, align 4, !tbaa !5
  %59 = sub nsw i32 %58, %129
  %60 = icmp sgt i32 %59, 1
  br i1 %60, label %132, label %143

61:                                               ; preds = %43, %125
  %62 = phi i32 [ %63, %125 ], [ %29, %43 ]
  %63 = add nsw i32 %62, 1
  %64 = load i32, i32* %39, align 4, !tbaa !5
  store i32 %64, i32* %37, align 4, !tbaa !5
  br i1 %40, label %65, label %125

65:                                               ; preds = %61
  br i1 %44, label %114, label %66

66:                                               ; preds = %65
  br i1 %48, label %98, label %67

67:                                               ; preds = %66, %67
  %68 = phi i64 [ %95, %67 ], [ 0, %66 ]
  %69 = phi i64 [ %96, %67 ], [ %49, %66 ]
  %70 = add i64 %28, %68
  %71 = add nuw nsw i64 %70, 1
  %72 = getelementptr inbounds [1000001 x i32], [1000001 x i32]* %3, i64 0, i64 %71
  %73 = bitcast i32* %72 to <4 x i32>*
  %74 = load <4 x i32>, <4 x i32>* %73, align 4, !tbaa !5
  %75 = getelementptr inbounds i32, i32* %72, i64 4
  %76 = bitcast i32* %75 to <4 x i32>*
  %77 = load <4 x i32>, <4 x i32>* %76, align 4, !tbaa !5
  %78 = getelementptr inbounds [1000001 x i32], [1000001 x i32]* %3, i64 0, i64 %70
  %79 = bitcast i32* %78 to <4 x i32>*
  store <4 x i32> %74, <4 x i32>* %79, align 4, !tbaa !5
  %80 = getelementptr inbounds i32, i32* %78, i64 4
  %81 = bitcast i32* %80 to <4 x i32>*
  store <4 x i32> %77, <4 x i32>* %81, align 4, !tbaa !5
  %82 = or i64 %68, 8
  %83 = add i64 %28, %82
  %84 = add nuw nsw i64 %83, 1
  %85 = getelementptr inbounds [1000001 x i32], [1000001 x i32]* %3, i64 0, i64 %84
  %86 = bitcast i32* %85 to <4 x i32>*
  %87 = load <4 x i32>, <4 x i32>* %86, align 4, !tbaa !5
  %88 = getelementptr inbounds i32, i32* %85, i64 4
  %89 = bitcast i32* %88 to <4 x i32>*
  %90 = load <4 x i32>, <4 x i32>* %89, align 4, !tbaa !5
  %91 = getelementptr inbounds [1000001 x i32], [1000001 x i32]* %3, i64 0, i64 %83
  %92 = bitcast i32* %91 to <4 x i32>*
  store <4 x i32> %87, <4 x i32>* %92, align 4, !tbaa !5
  %93 = getelementptr inbounds i32, i32* %91, i64 4
  %94 = bitcast i32* %93 to <4 x i32>*
  store <4 x i32> %90, <4 x i32>* %94, align 4, !tbaa !5
  %95 = add nuw i64 %68, 16
  %96 = add i64 %69, -2
  %97 = icmp eq i64 %96, 0
  br i1 %97, label %98, label %67, !llvm.loop !12

98:                                               ; preds = %67, %66
  %99 = phi i64 [ 0, %66 ], [ %95, %67 ]
  br i1 %50, label %113, label %100

100:                                              ; preds = %98
  %101 = add i64 %28, %99
  %102 = add nuw nsw i64 %101, 1
  %103 = getelementptr inbounds [1000001 x i32], [1000001 x i32]* %3, i64 0, i64 %102
  %104 = bitcast i32* %103 to <4 x i32>*
  %105 = load <4 x i32>, <4 x i32>* %104, align 4, !tbaa !5
  %106 = getelementptr inbounds i32, i32* %103, i64 4
  %107 = bitcast i32* %106 to <4 x i32>*
  %108 = load <4 x i32>, <4 x i32>* %107, align 4, !tbaa !5
  %109 = getelementptr inbounds [1000001 x i32], [1000001 x i32]* %3, i64 0, i64 %101
  %110 = bitcast i32* %109 to <4 x i32>*
  store <4 x i32> %105, <4 x i32>* %110, align 4, !tbaa !5
  %111 = getelementptr inbounds i32, i32* %109, i64 4
  %112 = bitcast i32* %111 to <4 x i32>*
  store <4 x i32> %108, <4 x i32>* %112, align 4, !tbaa !5
  br label %113

113:                                              ; preds = %98, %100
  br i1 %51, label %123, label %114

114:                                              ; preds = %65, %113
  %115 = phi i64 [ %28, %65 ], [ %46, %113 ]
  br label %116

116:                                              ; preds = %114, %116
  %117 = phi i64 [ %118, %116 ], [ %115, %114 ]
  %118 = add nuw nsw i64 %117, 1
  %119 = getelementptr inbounds [1000001 x i32], [1000001 x i32]* %3, i64 0, i64 %118
  %120 = load i32, i32* %119, align 4, !tbaa !5
  %121 = getelementptr inbounds [1000001 x i32], [1000001 x i32]* %3, i64 0, i64 %117
  store i32 %120, i32* %121, align 4, !tbaa !5
  %122 = icmp eq i64 %118, %25
  br i1 %122, label %123, label %116, !llvm.loop !14

123:                                              ; preds = %116, %113
  %124 = load i32, i32* %37, align 4, !tbaa !5
  br label %125

125:                                              ; preds = %123, %61
  %126 = phi i32 [ %64, %61 ], [ %124, %123 ]
  %127 = icmp eq i32 %126, %21
  br i1 %127, label %61, label %128, !llvm.loop !16

128:                                              ; preds = %125, %26
  %129 = phi i32 [ %29, %26 ], [ %63, %125 ]
  %130 = add nuw nsw i64 %28, 1
  %131 = icmp eq i64 %38, %25
  br i1 %131, label %52, label %26, !llvm.loop !18

132:                                              ; preds = %54, %132
  %133 = phi i64 [ %139, %132 ], [ 1, %54 ]
  %134 = call nonnull align 8 dereferenceable(8) %"class.std::basic_ostream"* @_ZSt16__ostream_insertIcSt11char_traitsIcEERSt13basic_ostreamIT_T0_ES6_PKS3_l(%"class.std::basic_ostream"* nonnull align 8 dereferenceable(8) @_ZSt4cout, i8* nonnull getelementptr inbounds ([2 x i8], [2 x i8]* @.str, i64 0, i64 0), i64 1)
  %135 = getelementptr inbounds [1000001 x i32], [1000001 x i32]* %3, i64 0, i64 %133
  %136 = load i32, i32* %135, align 4, !tbaa !5
  %137 = call nonnull align 8 dereferenceable(8) %"class.std::basic_ostream"* @_ZNSolsEi(%"class.std::basic_ostream"* nonnull align 8 dereferenceable(8) @_ZSt4cout, i32 %136)
  %138 = load i32, i32* %1, align 4, !tbaa !5
  %139 = add nuw nsw i64 %133, 1
  %140 = sub nsw i32 %138, %129
  %141 = sext i32 %140 to i64
  %142 = icmp slt i64 %139, %141
  br i1 %142, label %132, label %143, !llvm.loop !19

143:                                              ; preds = %132, %18, %54, %52
  call void @llvm.lifetime.end.p0i8(i64 4000004, i8* nonnull %7) #7
  call void @llvm.lifetime.end.p0i8(i64 4, i8* nonnull %5) #7
  call void @llvm.lifetime.end.p0i8(i64 4, i8* nonnull %4) #7
  ret i32 0
}

; Function Attrs: argmemonly mustprogress nofree nosync nounwind willreturn
declare void @llvm.lifetime.start.p0i8(i64 immarg, i8* nocapture) #4

declare nonnull align 8 dereferenceable(16) %"class.std::basic_istream"* @_ZNSirsERi(%"class.std::basic_istream"* nonnull align 8 dereferenceable(16), i32* nonnull align 4 dereferenceable(4)) local_unnamed_addr #0

; Function Attrs: argmemonly mustprogress nofree nounwind willreturn writeonly
declare void @llvm.memset.p0i8.i64(i8* nocapture writeonly, i8, i64, i1 immarg) #5

declare nonnull align 8 dereferenceable(8) %"class.std::basic_ostream"* @_ZNSolsEi(%"class.std::basic_ostream"* nonnull align 8 dereferenceable(8), i32) local_unnamed_addr #0

; Function Attrs: argmemonly mustprogress nofree nosync nounwind willreturn
declare void @llvm.lifetime.end.p0i8(i64 immarg, i8* nocapture) #4

declare nonnull align 8 dereferenceable(8) %"class.std::basic_ostream"* @_ZSt16__ostream_insertIcSt11char_traitsIcEERSt13basic_ostreamIT_T0_ES6_PKS3_l(%"class.std::basic_ostream"* nonnull align 8 dereferenceable(8), i8*, i64) local_unnamed_addr #0

; Function Attrs: sspstrong uwtable
define internal void @_GLOBAL__sub_I_1856.cpp() #6 section ".text.startup" {
  tail call void @_ZNSt8ios_base4InitC1Ev(%"class.std::ios_base::Init"* nonnull align 1 dereferenceable(1) @_ZStL8__ioinit)
  %1 = tail call i32 @__cxa_atexit(void (i8*)* bitcast (void (%"class.std::ios_base::Init"*)* @_ZNSt8ios_base4InitD1Ev to void (i8*)*), i8* getelementptr inbounds (%"class.std::ios_base::Init", %"class.std::ios_base::Init"* @_ZStL8__ioinit, i64 0, i32 0), i8* nonnull @__dso_handle) #7
  ret void
}


!llvm.module.flags = !{!0, !1, !2, !3}
!llvm.ident = !{!4}

!0 = !{i32 1, !"wchar_size", i32 4}
!1 = !{i32 7, !"PIC Level", i32 2}
!2 = !{i32 7, !"PIE Level", i32 2}
!3 = !{i32 7, !"uwtable", i32 1}
!4 = !{!"clang version 13.0.0"}
!5 = !{!6, !6, i64 0}
!6 = !{!"int", !7, i64 0}
!7 = !{!"omnipotent char", !8, i64 0}
!8 = !{!"Simple C++ TBAA"}
!9 = distinct !{!9, !10}
!10 = !{!"llvm.loop.mustprogress"}
!11 = distinct !{!11, !10}
!12 = distinct !{!12, !10, !13}
!13 = !{!"llvm.loop.isvectorized", i32 1}
!14 = distinct !{!14, !10, !15, !13}
!15 = !{!"llvm.loop.unroll.runtime.disable"}
!16 = distinct !{!16, !10, !17}
!17 = !{!"llvm.loop.unswitch.partial.disable"}
!18 = distinct !{!18, !10}
!19 = distinct !{!19, !10, !20}
!20 = !{!"llvm.loop.peeled.count", i32 1}
